; ModuleID = '10/2099.c'
source_filename = "10/2099.c"
target datalayout = "e-m:e-p270:32:32-p271:32:32-p272:64:64-i64:64-f80:128-n8:16:32:64-S128"
target triple = "x86_64-pc-linux-gnu"

@.str = private unnamed_addr constant [3 x i8] c"%d\00", align 1
@.str.1 = private unnamed_addr constant [4 x i8] c"%d\0A\00", align 1

; Function Attrs: noinline nounwind uwtable
define dso_local i32 @main() #0 {
  %1 = alloca i32, align 4
  %2 = alloca i32, align 4
  %3 = alloca [100 x i32], align 16
  %4 = alloca [100 x i32], align 16
  %5 = alloca i32, align 4
  %6 = alloca i32, align 4
  %7 = alloca i32, align 4
  %8 = alloca i32, align 4
  %9 = alloca i32, align 4
  store i32 0, i32* %1, align 4
  br label %10

10:                                               ; preds = %89, %0
  %11 = call i32 (i8*, ...) @__isoc99_scanf(i8* getelementptr inbounds ([3 x i8], [3 x i8]* @.str, i64 0, i64 0), i32* %2)
  %12 = icmp ne i32 %11, -1
  br i1 %12, label %13, label %92

13:                                               ; preds = %10
  store i32 1, i32* %5, align 4
  store i32 0, i32* %6, align 4
  br label %14

14:                                               ; preds = %26, %13
  %15 = load i32, i32* %6, align 4
  %16 = load i32, i32* %2, align 4
  %17 = icmp slt i32 %15, %16
  br i1 %17, label %18, label %29

18:                                               ; preds = %14
  %19 = load i32, i32* %6, align 4
  %20 = sext i32 %19 to i64
  %21 = getelementptr inbounds [100 x i32], [100 x i32]* %3, i64 0, i64 %20
  %22 = call i32 (i8*, ...) @__isoc99_scanf(i8* getelementptr inbounds ([3 x i8], [3 x i8]* @.str, i64 0, i64 0), i32* %21)
  %23 = load i32, i32* %6, align 4
  %24 = sext i32 %23 to i64
  %25 = getelementptr inbounds [100 x i32], [100 x i32]* %4, i64 0, i64 %24
  store i32 1, i32* %25, align 4
  br label %26

26:                                               ; preds = %18
  %27 = load i32, i32* %6, align 4
  %28 = add nsw i32 %27, 1
  store i32 %28, i32* %6, align 4
  br label %14

29:                                               ; preds = %14
  store i32 1, i32* %7, align 4
  br label %30

30:                                               ; preds = %86, %29
  %31 = load i32, i32* %7, align 4
  %32 = load i32, i32* %2, align 4
  %33 = icmp slt i32 %31, %32
  br i1 %33, label %34, label %89

34:                                               ; preds = %30
  store i32 1, i32* %8, align 4
  store i32 0, i32* %9, align 4
  br label %35

35:                                               ; preds = %70, %34
  %36 = load i32, i32* %9, align 4
  %37 = load i32, i32* %7, align 4
  %38 = icmp slt i32 %36, %37
  br i1 %38, label %39, label %73

39:                                               ; preds = %35
  %40 = load i32, i32* %9, align 4
  %41 = sext i32 %40 to i64
  %42 = getelementptr inbounds [100 x i32], [100 x i32]* %3, i64 0, i64 %41
  %43 = load i32, i32* %42, align 4
  %44 = load i32, i32* %7, align 4
  %45 = sext i32 %44 to i64
  %46 = getelementptr inbounds [100 x i32], [100 x i32]* %3, i64 0, i64 %45
  %47 = load i32, i32* %46, align 4
  %48 = icmp sge i32 %43, %47
  br i1 %48, label %49, label %69

49:                                               ; preds = %39
  %50 = load i32, i32* %7, align 4
  %51 = sext i32 %50 to i64
  %52 = getelementptr inbounds [100 x i32], [100 x i32]* %4, i64 0, i64 %51
  %53 = load i32, i32* %52, align 4
  %54 = load i32, i32* %9, align 4
  %55 = sext i32 %54 to i64
  %56 = getelementptr inbounds [100 x i32], [100 x i32]* %4, i64 0, i64 %55
  %57 = load i32, i32* %56, align 4
  %58 = add nsw i32 %57, 1
  %59 = icmp slt i32 %53, %58
  br i1 %59, label %60, label %69

60:                                               ; preds = %49
  %61 = load i32, i32* %9, align 4
  %62 = sext i32 %61 to i64
  %63 = getelementptr inbounds [100 x i32], [100 x i32]* %4, i64 0, i64 %62
  %64 = load i32, i32* %63, align 4
  %65 = add nsw i32 %64, 1
  %66 = load i32, i32* %7, align 4
  %67 = sext i32 %66 to i64
  %68 = getelementptr inbounds [100 x i32], [100 x i32]* %4, i64 0, i64 %67
  store i32 %65, i32* %68, align 4
  br label %69

69:                                               ; preds = %60, %49, %39
  br label %70

70:                                               ; preds = %69
  %71 = load i32, i32* %9, align 4
  %72 = add nsw i32 %71, 1
  store i32 %72, i32* %9, align 4
  br label %35

73:                                               ; preds = %35
  %74 = load i32, i32* %7, align 4
  %75 = sext i32 %74 to i64
  %76 = getelementptr inbounds [100 x i32], [100 x i32]* %4, i64 0, i64 %75
  %77 = load i32, i32* %76, align 4
  %78 = load i32, i32* %5, align 4
  %79 = icmp sgt i32 %77, %78
  br i1 %79, label %80, label %85

80:                                               ; preds = %73
  %81 = load i32, i32* %7, align 4
  %82 = sext i32 %81 to i64
  %83 = getelementptr inbounds [100 x i32], [100 x i32]* %4, i64 0, i64 %82
  %84 = load i32, i32* %83, align 4
  store i32 %84, i32* %5, align 4
  br label %85

85:                                               ; preds = %80, %73
  br label %86

86:                                               ; preds = %85
  %87 = load i32, i32* %7, align 4
  %88 = add nsw i32 %87, 1
  store i32 %88, i32* %7, align 4
  br label %30

89:                                               ; preds = %30
  %90 = load i32, i32* %5, align 4
  %91 = call i32 (i8*, ...) @printf(i8* getelementptr inbounds ([4 x i8], [4 x i8]* @.str.1, i64 0, i64 0), i32 %90)
  br label %10

92:                                               ; preds = %10
  ret i32 0
}

declare dso_local i32 @__isoc99_scanf(i8*, ...) #1

declare dso_local i32 @printf(i8*, ...) #1


!llvm.module.flags = !{!0}
!llvm.ident = !{!1}

!0 = !{i32 1, !"wchar_size", i32 4}
!1 = !{!"clang version 10.0.0-4ubuntu1 "}
